target datalayout = "e-m:e-p270:32:32-p271:32:32-p272:64:64-i64:64-i128:128-f80:128-n8:16:32:64-S128"
target triple = "x86_64-pc-linux-gnu"

@stderr = external global ptr, align 8
@.str.48 = private unnamed_addr constant [39 x i8] c"Spike RISC-V ISA Simulator 1.1.1-dev\0A\0A\00", align 1
@.str.49 = private unnamed_addr constant [63 x i8] c"usage: spike [host options] <target program> [target options]\0A\00", align 1
@.str.50 = private unnamed_addr constant [15 x i8] c"Host Options:\0A\00", align 1
@.str.51 = private unnamed_addr constant [61 x i8] c"  -p<n>                 Simulate <n> processors [default 1]\0A\00", align 1
@.str.52 = private unnamed_addr constant [73 x i8] c"  -m<n>                 Provide <n> MiB of target memory [default 2048]\0A\00", align 1
@.str.53 = private unnamed_addr constant [70 x i8] c"  -m<a:m,b:n,...>       Provide memory regions of size m and n bytes\0A\00", align 1
@.str.54 = private unnamed_addr constant [76 x i8] c"                          at base addresses a and b (with 4 KiB alignment)\0A\00", align 1
@.str.55 = private unnamed_addr constant [48 x i8] c"  -d                    Interactive debug mode\0A\00", align 1
@.str.56 = private unnamed_addr constant [48 x i8] c"  -g                    Track histogram of PCs\0A\00", align 1
@.str.57 = private unnamed_addr constant [53 x i8] c"  -l                    Generate a log of execution\0A\00", align 1
@.str.58 = private unnamed_addr constant [62 x i8] c"  -s                    Command I/O via socket (use with -d)\0A\00", align 1
@.str.59 = private unnamed_addr constant [49 x i8] c"  -h, --help            Print this help message\0A\00", align 1
@.str.60 = private unnamed_addr constant [70 x i8] c"  -H                    Start halted, allowing a debugger to connect\0A\00", align 1
@.str.61 = private unnamed_addr constant [49 x i8] c"  --log=<name>          File name for option -l\0A\00", align 1
@.str.62 = private unnamed_addr constant [63 x i8] c"  --debug-cmd=<name>    Read commands from file (use with -d)\0A\00", align 1
@.str.63 = private unnamed_addr constant [56 x i8] c"  --isa=<name>          RISC-V ISA string [default %s]\0A\00", align 1
@.str.64 = private unnamed_addr constant [24 x i8] c"RV64IMAFDC_zicntr_zihpm\00", align 1
@.str.65 = private unnamed_addr constant [60 x i8] c"  --pmpregions=<n>      Number of PMP regions [default 16]\0A\00", align 1
@.str.66 = private unnamed_addr constant [62 x i8] c"  --pmpgranularity=<n>  PMP Granularity in bytes [default 4]\0A\00", align 1
@.str.67 = private unnamed_addr constant [71 x i8] c"  --priv=<m|mu|msu>     RISC-V privilege modes supported [default %s]\0A\00", align 1
@.str.68 = private unnamed_addr constant [4 x i8] c"MSU\00", align 1
@.str.69 = private unnamed_addr constant [65 x i8] c"  --varch=<name>        RISC-V Vector uArch string [default %s]\0A\00", align 1
@.str.70 = private unnamed_addr constant [17 x i8] c"vlen:128,elen:64\00", align 1
@.str.71 = private unnamed_addr constant [50 x i8] c"  --pc=<address>        Override ELF entry point\0A\00", align 1
@.str.72 = private unnamed_addr constant [72 x i8] c"  --hartids=<a,b,...>   Explicitly specify hartids, default is 0,1,...\0A\00", align 1
@.str.73 = private unnamed_addr constant [64 x i8] c"  --ic=<S>:<W>:<B>      Instantiate a cache model with S sets,\0A\00", align 1
@.str.74 = private unnamed_addr constant [65 x i8] c"  --dc=<S>:<W>:<B>        W ways, and B-byte blocks (with S and\0A\00", align 1
@.str.75 = private unnamed_addr constant [48 x i8] c"  --l2=<S>:<W>:<B>        B both powers of 2).\0A\00", align 1
@.str.76 = private unnamed_addr constant [57 x i8] c"  --big-endian          Use a big-endian memory system.\0A\00", align 1
@.str.77 = private unnamed_addr constant [60 x i8] c"  --misaligned          Support misaligned memory accesses\0A\00", align 1
@.str.78 = private unnamed_addr constant [77 x i8] c"  --device=<name>       Attach MMIO plugin device from an --extlib library,\0A\00", align 1
@.str.79 = private unnamed_addr constant [83 x i8] c"                          specify --device=<name>,<args> to pass down extra args.\0A\00", align 1
@.str.80 = private unnamed_addr constant [54 x i8] c"  --log-cache-miss      Generate a log of cache miss\0A\00", align 1
@.str.81 = private unnamed_addr constant [56 x i8] c"  --log-commits         Generate a log of commits info\0A\00", align 1
@.str.82 = private unnamed_addr constant [48 x i8] c"  --extension=<name>    Specify RoCC Extension\0A\00", align 1
@.str.83 = private unnamed_addr constant [65 x i8] c"                          This flag can be used multiple times.\0A\00", align 1
@.str.84 = private unnamed_addr constant [48 x i8] c"  --extlib=<name>       Shared library to load\0A\00", align 1
@.str.85 = private unnamed_addr constant [63 x i8] c"                        This flag can be used multiple times.\0A\00", align 1
@.str.86 = private unnamed_addr constant [72 x i8] c"  --rbb-port=<port>     Listen on <port> for remote bitbang connection\0A\00", align 1
@.str.87 = private unnamed_addr constant [59 x i8] c"  --dump-dts            Print device tree string and exit\0A\00", align 1
@.str.88 = private unnamed_addr constant [81 x i8] c"  --dtb=<path>          Use specified device tree blob [default: auto-generate]\0A\00", align 1
@.str.89 = private unnamed_addr constant [70 x i8] c"  --disable-dtb         Don't write the device tree blob into memory\0A\00", align 1
@.str.90 = private unnamed_addr constant [60 x i8] c"  --kernel=<path>       Load kernel flat image into memory\0A\00", align 1
@.str.91 = private unnamed_addr constant [56 x i8] c"  --initrd=<path>       Load kernel initrd into memory\0A\00", align 1
@.str.92 = private unnamed_addr constant [74 x i8] c"  --bootargs=<args>     Provide custom bootargs for kernel [default: %s]\0A\00", align 1
@.str.93 = private unnamed_addr constant [23 x i8] c"console=ttyS0 earlycon\00", align 1
@.str.94 = private unnamed_addr constant [64 x i8] c"  --real-time-clint     Increment clint time at real-time rate\0A\00", align 1
@.str.95 = private unnamed_addr constant [66 x i8] c"  --triggers=<n>        Number of supported triggers [default 4]\0A\00", align 1
@.str.96 = private unnamed_addr constant [67 x i8] c"  --dm-progsize=<words> Progsize for the debug module [default 2]\0A\00", align 1
@.str.97 = private unnamed_addr constant [97 x i8] c"  --dm-sba=<bits>       Debug system bus access supports up to <bits> wide accesses [default 0]\0A\00", align 1
@.str.98 = private unnamed_addr constant [72 x i8] c"  --dm-auth             Debug module requires debugger to authenticate\0A\00", align 1
@.str.99 = private unnamed_addr constant [94 x i8] c"  --dmi-rti=<n>         Number of Run-Test/Idle cycles required for a DMI access [default 0]\0A\00", align 1
@.str.100 = private unnamed_addr constant [112 x i8] c"  --dm-abstract-rti=<n> Number of Run-Test/Idle cycles required for an abstract command to execute [default 0]\0A\00", align 1
@.str.101 = private unnamed_addr constant [53 x i8] c"  --dm-no-hasel         Debug module supports hasel\0A\00", align 1
@.str.102 = private unnamed_addr constant [72 x i8] c"  --dm-no-abstract-csr  Debug module won't support abstract CSR access\0A\00", align 1
@.str.103 = private unnamed_addr constant [72 x i8] c"  --dm-no-abstract-fpr  Debug module won't support abstract FPR access\0A\00", align 1
@.str.104 = private unnamed_addr constant [64 x i8] c"  --dm-no-halt-groups   Debug module won't support halt groups\0A\00", align 1
@.str.105 = private unnamed_addr constant [86 x i8] c"  --dm-no-impebreak     Debug module won't support implicit ebreak in program buffer\0A\00", align 1
@.str.106 = private unnamed_addr constant [91 x i8] c"  --blocksz=<size>      Cache block size (B) for CMO operations(powers of 2) [default 64]\0A\00", align 1

; Function Attrs: mustprogress nounwind uwtable
define internal void @_ZL4helpi(i32 noundef %0) #5 {
  %2 = alloca i32, align 4
  store i32 %0, ptr %2, align 4
  %3 = load ptr, ptr @stderr, align 8
  %4 = call i32 (ptr, ptr, ...) @fprintf(ptr noundef %3, ptr noundef @.str.48) #3
  %5 = load ptr, ptr @stderr, align 8
  %6 = call i32 (ptr, ptr, ...) @fprintf(ptr noundef %5, ptr noundef @.str.49) #3
  %7 = load ptr, ptr @stderr, align 8
  %8 = call i32 (ptr, ptr, ...) @fprintf(ptr noundef %7, ptr noundef @.str.50) #3
  %9 = load ptr, ptr @stderr, align 8
  %10 = call i32 (ptr, ptr, ...) @fprintf(ptr noundef %9, ptr noundef @.str.51) #3
  %11 = load ptr, ptr @stderr, align 8
  %12 = call i32 (ptr, ptr, ...) @fprintf(ptr noundef %11, ptr noundef @.str.52) #3
  %13 = load ptr, ptr @stderr, align 8
  %14 = call i32 (ptr, ptr, ...) @fprintf(ptr noundef %13, ptr noundef @.str.53) #3
  %15 = load ptr, ptr @stderr, align 8
  %16 = call i32 (ptr, ptr, ...) @fprintf(ptr noundef %15, ptr noundef @.str.54) #3
  %17 = load ptr, ptr @stderr, align 8
  %18 = call i32 (ptr, ptr, ...) @fprintf(ptr noundef %17, ptr noundef @.str.55) #3
  %19 = load ptr, ptr @stderr, align 8
  %20 = call i32 (ptr, ptr, ...) @fprintf(ptr noundef %19, ptr noundef @.str.56) #3
  %21 = load ptr, ptr @stderr, align 8
  %22 = call i32 (ptr, ptr, ...) @fprintf(ptr noundef %21, ptr noundef @.str.57) #3
  %23 = load ptr, ptr @stderr, align 8
  %24 = call i32 (ptr, ptr, ...) @fprintf(ptr noundef %23, ptr noundef @.str.58) #3
  %25 = load ptr, ptr @stderr, align 8
  %26 = call i32 (ptr, ptr, ...) @fprintf(ptr noundef %25, ptr noundef @.str.59) #3
  %27 = load ptr, ptr @stderr, align 8
  %28 = call i32 (ptr, ptr, ...) @fprintf(ptr noundef %27, ptr noundef @.str.60) #3
  %29 = load ptr, ptr @stderr, align 8
  %30 = call i32 (ptr, ptr, ...) @fprintf(ptr noundef %29, ptr noundef @.str.61) #3
  %31 = load ptr, ptr @stderr, align 8
  %32 = call i32 (ptr, ptr, ...) @fprintf(ptr noundef %31, ptr noundef @.str.62) #3
  %33 = load ptr, ptr @stderr, align 8
  %34 = call i32 (ptr, ptr, ...) @fprintf(ptr noundef %33, ptr noundef @.str.63, ptr noundef @.str.64) #3
  %35 = load ptr, ptr @stderr, align 8
  %36 = call i32 (ptr, ptr, ...) @fprintf(ptr noundef %35, ptr noundef @.str.65) #3
  %37 = load ptr, ptr @stderr, align 8
  %38 = call i32 (ptr, ptr, ...) @fprintf(ptr noundef %37, ptr noundef @.str.66) #3
  %39 = load ptr, ptr @stderr, align 8
  %40 = call i32 (ptr, ptr, ...) @fprintf(ptr noundef %39, ptr noundef @.str.67, ptr noundef @.str.68) #3
  %41 = load ptr, ptr @stderr, align 8
  %42 = call i32 (ptr, ptr, ...) @fprintf(ptr noundef %41, ptr noundef @.str.69, ptr noundef @.str.70) #3
  %43 = load ptr, ptr @stderr, align 8
  %44 = call i32 (ptr, ptr, ...) @fprintf(ptr noundef %43, ptr noundef @.str.71) #3
  %45 = load ptr, ptr @stderr, align 8
  %46 = call i32 (ptr, ptr, ...) @fprintf(ptr noundef %45, ptr noundef @.str.72) #3
  %47 = load ptr, ptr @stderr, align 8
  %48 = call i32 (ptr, ptr, ...) @fprintf(ptr noundef %47, ptr noundef @.str.73) #3
  %49 = load ptr, ptr @stderr, align 8
  %50 = call i32 (ptr, ptr, ...) @fprintf(ptr noundef %49, ptr noundef @.str.74) #3
  %51 = load ptr, ptr @stderr, align 8
  %52 = call i32 (ptr, ptr, ...) @fprintf(ptr noundef %51, ptr noundef @.str.75) #3
  %53 = load ptr, ptr @stderr, align 8
  %54 = call i32 (ptr, ptr, ...) @fprintf(ptr noundef %53, ptr noundef @.str.76) #3
  %55 = load ptr, ptr @stderr, align 8
  %56 = call i32 (ptr, ptr, ...) @fprintf(ptr noundef %55, ptr noundef @.str.77) #3
  %57 = load ptr, ptr @stderr, align 8
  %58 = call i32 (ptr, ptr, ...) @fprintf(ptr noundef %57, ptr noundef @.str.78) #3
  %59 = load ptr, ptr @stderr, align 8
  %60 = call i32 (ptr, ptr, ...) @fprintf(ptr noundef %59, ptr noundef @.str.79) #3
  %61 = load ptr, ptr @stderr, align 8
  %62 = call i32 (ptr, ptr, ...) @fprintf(ptr noundef %61, ptr noundef @.str.80) #3
  %63 = load ptr, ptr @stderr, align 8
  %64 = call i32 (ptr, ptr, ...) @fprintf(ptr noundef %63, ptr noundef @.str.81) #3
  %65 = load ptr, ptr @stderr, align 8
  %66 = call i32 (ptr, ptr, ...) @fprintf(ptr noundef %65, ptr noundef @.str.82) #3
  %67 = load ptr, ptr @stderr, align 8
  %68 = call i32 (ptr, ptr, ...) @fprintf(ptr noundef %67, ptr noundef @.str.83) #3
  %69 = load ptr, ptr @stderr, align 8
  %70 = call i32 (ptr, ptr, ...) @fprintf(ptr noundef %69, ptr noundef @.str.84) #3
  %71 = load ptr, ptr @stderr, align 8
  %72 = call i32 (ptr, ptr, ...) @fprintf(ptr noundef %71, ptr noundef @.str.85) #3
  %73 = load ptr, ptr @stderr, align 8
  %74 = call i32 (ptr, ptr, ...) @fprintf(ptr noundef %73, ptr noundef @.str.86) #3
  %75 = load ptr, ptr @stderr, align 8
  %76 = call i32 (ptr, ptr, ...) @fprintf(ptr noundef %75, ptr noundef @.str.87) #3
  %77 = load ptr, ptr @stderr, align 8
  %78 = call i32 (ptr, ptr, ...) @fprintf(ptr noundef %77, ptr noundef @.str.88) #3
  %79 = load ptr, ptr @stderr, align 8
  %80 = call i32 (ptr, ptr, ...) @fprintf(ptr noundef %79, ptr noundef @.str.89) #3
  %81 = load ptr, ptr @stderr, align 8
  %82 = call i32 (ptr, ptr, ...) @fprintf(ptr noundef %81, ptr noundef @.str.90) #3
  %83 = load ptr, ptr @stderr, align 8
  %84 = call i32 (ptr, ptr, ...) @fprintf(ptr noundef %83, ptr noundef @.str.91) #3
  %85 = load ptr, ptr @stderr, align 8
  %86 = call i32 (ptr, ptr, ...) @fprintf(ptr noundef %85, ptr noundef @.str.92, ptr noundef @.str.93) #3
  %87 = load ptr, ptr @stderr, align 8
  %88 = call i32 (ptr, ptr, ...) @fprintf(ptr noundef %87, ptr noundef @.str.94) #3
  %89 = load ptr, ptr @stderr, align 8
  %90 = call i32 (ptr, ptr, ...) @fprintf(ptr noundef %89, ptr noundef @.str.95) #3
  %91 = load ptr, ptr @stderr, align 8
  %92 = call i32 (ptr, ptr, ...) @fprintf(ptr noundef %91, ptr noundef @.str.96) #3
  %93 = load ptr, ptr @stderr, align 8
  %94 = call i32 (ptr, ptr, ...) @fprintf(ptr noundef %93, ptr noundef @.str.97) #3
  %95 = load ptr, ptr @stderr, align 8
  %96 = call i32 (ptr, ptr, ...) @fprintf(ptr noundef %95, ptr noundef @.str.98) #3
  %97 = load ptr, ptr @stderr, align 8
  %98 = call i32 (ptr, ptr, ...) @fprintf(ptr noundef %97, ptr noundef @.str.99) #3
  %99 = load ptr, ptr @stderr, align 8
  %100 = call i32 (ptr, ptr, ...) @fprintf(ptr noundef %99, ptr noundef @.str.100) #3
  %101 = load ptr, ptr @stderr, align 8
  %102 = call i32 (ptr, ptr, ...) @fprintf(ptr noundef %101, ptr noundef @.str.101) #3
  %103 = load ptr, ptr @stderr, align 8
  %104 = call i32 (ptr, ptr, ...) @fprintf(ptr noundef %103, ptr noundef @.str.102) #3
  %105 = load ptr, ptr @stderr, align 8
  %106 = call i32 (ptr, ptr, ...) @fprintf(ptr noundef %105, ptr noundef @.str.103) #3
  %107 = load ptr, ptr @stderr, align 8
  %108 = call i32 (ptr, ptr, ...) @fprintf(ptr noundef %107, ptr noundef @.str.104) #3
  %109 = load ptr, ptr @stderr, align 8
  %110 = call i32 (ptr, ptr, ...) @fprintf(ptr noundef %109, ptr noundef @.str.105) #3
  %111 = load ptr, ptr @stderr, align 8
  %112 = call i32 (ptr, ptr, ...) @fprintf(ptr noundef %111, ptr noundef @.str.106) #3
  %113 = load i32, ptr %2, align 4
  call void @exit(i32 noundef %113) #17
  unreachable
}