; Function Attrs: mustprogress noreturn nounwind uwtable
define internal fastcc void @_ZL4helpi(i32 noundef %0) unnamed_addr #5 {
  %2 = load ptr, ptr @stderr, align 8
  %3 = tail call i64 @fwrite(ptr nonnull @.str.48, i64 38, i64 1, ptr %2) #35
  %4 = load ptr, ptr @stderr, align 8
  %5 = tail call i64 @fwrite(ptr nonnull @.str.49, i64 62, i64 1, ptr %4) #35
  %6 = load ptr, ptr @stderr, align 8
  %7 = tail call i64 @fwrite(ptr nonnull @.str.50, i64 14, i64 1, ptr %6) #35
  %8 = load ptr, ptr @stderr, align 8
  %9 = tail call i64 @fwrite(ptr nonnull @.str.51, i64 60, i64 1, ptr %8) #35
  %10 = load ptr, ptr @stderr, align 8
  %11 = tail call i64 @fwrite(ptr nonnull @.str.52, i64 72, i64 1, ptr %10) #35
  %12 = load ptr, ptr @stderr, align 8
  %13 = tail call i64 @fwrite(ptr nonnull @.str.53, i64 69, i64 1, ptr %12) #35
  %14 = load ptr, ptr @stderr, align 8
  %15 = tail call i64 @fwrite(ptr nonnull @.str.54, i64 75, i64 1, ptr %14) #35
  %16 = load ptr, ptr @stderr, align 8
  %17 = tail call i64 @fwrite(ptr nonnull @.str.55, i64 47, i64 1, ptr %16) #35
  %18 = load ptr, ptr @stderr, align 8
  %19 = tail call i64 @fwrite(ptr nonnull @.str.56, i64 47, i64 1, ptr %18) #35
  %20 = load ptr, ptr @stderr, align 8
  %21 = tail call i64 @fwrite(ptr nonnull @.str.57, i64 52, i64 1, ptr %20) #35
  %22 = load ptr, ptr @stderr, align 8
  %23 = tail call i64 @fwrite(ptr nonnull @.str.58, i64 61, i64 1, ptr %22) #35
  %24 = load ptr, ptr @stderr, align 8
  %25 = tail call i64 @fwrite(ptr nonnull @.str.59, i64 48, i64 1, ptr %24) #35
  %26 = load ptr, ptr @stderr, align 8
  %27 = tail call i64 @fwrite(ptr nonnull @.str.60, i64 69, i64 1, ptr %26) #35
  %28 = load ptr, ptr @stderr, align 8
  %29 = tail call i64 @fwrite(ptr nonnull @.str.61, i64 48, i64 1, ptr %28) #35
  %30 = load ptr, ptr @stderr, align 8
  %31 = tail call i64 @fwrite(ptr nonnull @.str.62, i64 62, i64 1, ptr %30) #35
  %32 = load ptr, ptr @stderr, align 8
  %33 = tail call i32 (ptr, ptr, ...) @fprintf(ptr noundef %32, ptr noundef nonnull @.str.63, ptr noundef nonnull @.str.64) #36
  %34 = load ptr, ptr @stderr, align 8
  %35 = tail call i64 @fwrite(ptr nonnull @.str.65, i64 59, i64 1, ptr %34) #35
  %36 = load ptr, ptr @stderr, align 8
  %37 = tail call i64 @fwrite(ptr nonnull @.str.66, i64 61, i64 1, ptr %36) #35
  %38 = load ptr, ptr @stderr, align 8
  %39 = tail call i32 (ptr, ptr, ...) @fprintf(ptr noundef %38, ptr noundef nonnull @.str.67, ptr noundef nonnull @.str.68) #36
  %40 = load ptr, ptr @stderr, align 8
  %41 = tail call i32 (ptr, ptr, ...) @fprintf(ptr noundef %40, ptr noundef nonnull @.str.69, ptr noundef nonnull @.str.70) #36
  %42 = load ptr, ptr @stderr, align 8
  %43 = tail call i64 @fwrite(ptr nonnull @.str.71, i64 49, i64 1, ptr %42) #35
  %44 = load ptr, ptr @stderr, align 8
  %45 = tail call i64 @fwrite(ptr nonnull @.str.72, i64 71, i64 1, ptr %44) #35
  %46 = load ptr, ptr @stderr, align 8
  %47 = tail call i64 @fwrite(ptr nonnull @.str.73, i64 63, i64 1, ptr %46) #35
  %48 = load ptr, ptr @stderr, align 8
  %49 = tail call i64 @fwrite(ptr nonnull @.str.74, i64 64, i64 1, ptr %48) #35
  %50 = load ptr, ptr @stderr, align 8
  %51 = tail call i64 @fwrite(ptr nonnull @.str.75, i64 47, i64 1, ptr %50) #35
  %52 = load ptr, ptr @stderr, align 8
  %53 = tail call i64 @fwrite(ptr nonnull @.str.76, i64 56, i64 1, ptr %52) #35
  %54 = load ptr, ptr @stderr, align 8
  %55 = tail call i64 @fwrite(ptr nonnull @.str.77, i64 59, i64 1, ptr %54) #35
  %56 = load ptr, ptr @stderr, align 8
  %57 = tail call i64 @fwrite(ptr nonnull @.str.78, i64 76, i64 1, ptr %56) #35
  %58 = load ptr, ptr @stderr, align 8
  %59 = tail call i64 @fwrite(ptr nonnull @.str.79, i64 82, i64 1, ptr %58) #35
  %60 = load ptr, ptr @stderr, align 8
  %61 = tail call i64 @fwrite(ptr nonnull @.str.80, i64 53, i64 1, ptr %60) #35
  %62 = load ptr, ptr @stderr, align 8
  %63 = tail call i64 @fwrite(ptr nonnull @.str.81, i64 55, i64 1, ptr %62) #35
  %64 = load ptr, ptr @stderr, align 8
  %65 = tail call i64 @fwrite(ptr nonnull @.str.82, i64 47, i64 1, ptr %64) #35
  %66 = load ptr, ptr @stderr, align 8
  %67 = tail call i64 @fwrite(ptr nonnull @.str.83, i64 64, i64 1, ptr %66) #35
  %68 = load ptr, ptr @stderr, align 8
  %69 = tail call i64 @fwrite(ptr nonnull @.str.84, i64 47, i64 1, ptr %68) #35
  %70 = load ptr, ptr @stderr, align 8
  %71 = tail call i64 @fwrite(ptr nonnull @.str.85, i64 62, i64 1, ptr %70) #35
  %72 = load ptr, ptr @stderr, align 8
  %73 = tail call i64 @fwrite(ptr nonnull @.str.86, i64 71, i64 1, ptr %72) #35
  %74 = load ptr, ptr @stderr, align 8
  %75 = tail call i64 @fwrite(ptr nonnull @.str.87, i64 58, i64 1, ptr %74) #35
  %76 = load ptr, ptr @stderr, align 8
  %77 = tail call i64 @fwrite(ptr nonnull @.str.88, i64 80, i64 1, ptr %76) #35
  %78 = load ptr, ptr @stderr, align 8
  %79 = tail call i64 @fwrite(ptr nonnull @.str.89, i64 69, i64 1, ptr %78) #35
  %80 = load ptr, ptr @stderr, align 8
  %81 = tail call i64 @fwrite(ptr nonnull @.str.90, i64 59, i64 1, ptr %80) #35
  %82 = load ptr, ptr @stderr, align 8
  %83 = tail call i64 @fwrite(ptr nonnull @.str.91, i64 55, i64 1, ptr %82) #35
  %84 = load ptr, ptr @stderr, align 8
  %85 = tail call i32 (ptr, ptr, ...) @fprintf(ptr noundef %84, ptr noundef nonnull @.str.92, ptr noundef nonnull @.str.93) #36
  %86 = load ptr, ptr @stderr, align 8
  %87 = tail call i64 @fwrite(ptr nonnull @.str.94, i64 63, i64 1, ptr %86) #35
  %88 = load ptr, ptr @stderr, align 8
  %89 = tail call i64 @fwrite(ptr nonnull @.str.95, i64 65, i64 1, ptr %88) #35
  %90 = load ptr, ptr @stderr, align 8
  %91 = tail call i64 @fwrite(ptr nonnull @.str.96, i64 66, i64 1, ptr %90) #35
  %92 = load ptr, ptr @stderr, align 8
  %93 = tail call i64 @fwrite(ptr nonnull @.str.97, i64 96, i64 1, ptr %92) #35
  %94 = load ptr, ptr @stderr, align 8
  %95 = tail call i64 @fwrite(ptr nonnull @.str.98, i64 71, i64 1, ptr %94) #35
  %96 = load ptr, ptr @stderr, align 8
  %97 = tail call i64 @fwrite(ptr nonnull @.str.99, i64 93, i64 1, ptr %96) #35
  %98 = load ptr, ptr @stderr, align 8
  %99 = tail call i64 @fwrite(ptr nonnull @.str.100, i64 111, i64 1, ptr %98) #35
  %100 = load ptr, ptr @stderr, align 8
  %101 = tail call i64 @fwrite(ptr nonnull @.str.101, i64 52, i64 1, ptr %100) #35
  %102 = load ptr, ptr @stderr, align 8
  %103 = tail call i64 @fwrite(ptr nonnull @.str.102, i64 71, i64 1, ptr %102) #35
  %104 = load ptr, ptr @stderr, align 8
  %105 = tail call i64 @fwrite(ptr nonnull @.str.103, i64 71, i64 1, ptr %104) #35
  %106 = load ptr, ptr @stderr, align 8
  %107 = tail call i64 @fwrite(ptr nonnull @.str.104, i64 63, i64 1, ptr %106) #35
  %108 = load ptr, ptr @stderr, align 8
  %109 = tail call i64 @fwrite(ptr nonnull @.str.105, i64 85, i64 1, ptr %108) #35
  %110 = load ptr, ptr @stderr, align 8
  %111 = tail call i64 @fwrite(ptr nonnull @.str.106, i64 90, i64 1, ptr %110) #35
  tail call void @exit(i32 noundef %0) #30
  unreachable
}